target datalayout = "e-m:e-p270:32:32-p271:32:32-p272:64:64-i64:64-i128:128-f80:128-n8:16:32:64-S128"
target triple = "x86_64-pc-linux-gnu"

%"struct.zmq::options_t" = type { i32, i32, i64, i8, [256 x i8], i32, i32, i32, i32, i32, i32, i32, i32, i8, %"struct.zmq::atomic_value_t", i32, i32, i32, i32, i32, i32, i64, i32, i32, i8, i32, i8, i8, i8, i8, i8, %"class.std::__cxx11::basic_string", %"class.std::__cxx11::basic_string", %"class.std::__cxx11::basic_string", i32, i32, i32, i32, %"class.std::vector", %"class.std::set", %"class.std::set", %"class.std::set.6", i32, i32, %"class.std::__cxx11::basic_string", %"class.std::__cxx11::basic_string", %"class.std::__cxx11::basic_string", [32 x i8], [32 x i8], [32 x i8], %"class.std::__cxx11::basic_string", %"class.std::__cxx11::basic_string", i32, i32, i8, i32, i8, i32, i8, i16, i32, i32, i32, %"class.std::__cxx11::basic_string", i8, i8, i8, i32, i32, i8, i32, %"class.std::map", i32, %"class.std::__cxx11::basic_string", %"class.std::__cxx11::basic_string", %"class.std::__cxx11::basic_string", %"class.std::__cxx11::basic_string", i8, %"class.std::vector.17", i8, %"class.std::vector.17", i8, %"class.std::vector.17", i8, i32, i8, i32, i32, i32, i32, i32, i8, i32 }
%"struct.zmq::atomic_value_t" = type { %"struct.std::atomic" }
%"struct.std::atomic" = type { %"struct.std::__atomic_base" }
%"struct.std::__atomic_base" = type { i32 }
%"class.std::vector" = type { %"struct.std::_Vector_base" }
%"struct.std::_Vector_base" = type { %"struct.std::_Vector_base<zmq::tcp_address_mask_t, std::allocator<zmq::tcp_address_mask_t>>::_Vector_impl" }
%"struct.std::_Vector_base<zmq::tcp_address_mask_t, std::allocator<zmq::tcp_address_mask_t>>::_Vector_impl" = type { %"struct.std::_Vector_base<zmq::tcp_address_mask_t, std::allocator<zmq::tcp_address_mask_t>>::_Vector_impl_data" }
%"struct.std::_Vector_base<zmq::tcp_address_mask_t, std::allocator<zmq::tcp_address_mask_t>>::_Vector_impl_data" = type { ptr, ptr, ptr }
%"class.std::set" = type { %"class.std::_Rb_tree" }
%"class.std::_Rb_tree" = type { %"struct.std::_Rb_tree<unsigned int, unsigned int, std::_Identity<unsigned int>, std::less<unsigned int>>::_Rb_tree_impl" }
%"struct.std::_Rb_tree<unsigned int, unsigned int, std::_Identity<unsigned int>, std::less<unsigned int>>::_Rb_tree_impl" = type { [8 x i8], %"struct.std::_Rb_tree_header" }
%"struct.std::_Rb_tree_header" = type { %"struct.std::_Rb_tree_node_base", i64 }
%"struct.std::_Rb_tree_node_base" = type { i32, ptr, ptr, ptr }
%"class.std::set.6" = type { %"class.std::_Rb_tree.7" }
%"class.std::_Rb_tree.7" = type { %"struct.std::_Rb_tree<int, int, std::_Identity<int>, std::less<int>>::_Rb_tree_impl" }
%"struct.std::_Rb_tree<int, int, std::_Identity<int>, std::less<int>>::_Rb_tree_impl" = type { [8 x i8], %"struct.std::_Rb_tree_header" }
%"class.std::map" = type { %"class.std::_Rb_tree.12" }
%"class.std::_Rb_tree.12" = type { %"struct.std::_Rb_tree<std::__cxx11::basic_string<char>, std::pair<const std::__cxx11::basic_string<char>, std::__cxx11::basic_string<char>>, std::_Select1st<std::pair<const std::__cxx11::basic_string<char>, std::__cxx11::basic_string<char>>>, std::less<std::__cxx11::basic_string<char>>>::_Rb_tree_impl" }
%"struct.std::_Rb_tree<std::__cxx11::basic_string<char>, std::pair<const std::__cxx11::basic_string<char>, std::__cxx11::basic_string<char>>, std::_Select1st<std::pair<const std::__cxx11::basic_string<char>, std::__cxx11::basic_string<char>>>, std::less<std::__cxx11::basic_string<char>>>::_Rb_tree_impl" = type { [8 x i8], %"struct.std::_Rb_tree_header" }
%"class.std::__cxx11::basic_string" = type { %"struct.std::__cxx11::basic_string<char>::_Alloc_hider", i64, %union.anon }
%"struct.std::__cxx11::basic_string<char>::_Alloc_hider" = type { ptr }
%union.anon = type { i64, [8 x i8] }
%"class.std::vector.17" = type { %"struct.std::_Vector_base.18" }
%"struct.std::_Vector_base.18" = type { %"struct.std::_Vector_base<unsigned char, std::allocator<unsigned char>>::_Vector_impl" }
%"struct.std::_Vector_base<unsigned char, std::allocator<unsigned char>>::_Vector_impl" = type { %"struct.std::_Vector_base<unsigned char, std::allocator<unsigned char>>::_Vector_impl_data" }
%"struct.std::_Vector_base<unsigned char, std::allocator<unsigned char>>::_Vector_impl_data" = type { ptr, ptr, ptr }
%"class.zmq::session_base_t" = type { %"class.zmq::own_t.base", %"class.zmq::io_object_t", %"struct.zmq::i_pipe_events", i8, ptr, ptr, %"class.std::set.30", i8, i8, ptr, ptr, ptr, i8, ptr, %"class.std::__cxx11::basic_string" }
%"class.zmq::own_t.base" = type <{ %"class.zmq::object_t.base", [4 x i8], %"struct.zmq::options_t", i8, [7 x i8], %"class.zmq::atomic_counter_t", i64, ptr, %"class.std::set.24", i32 }>
%"class.zmq::object_t.base" = type <{ ptr, ptr, i32 }>
%"class.zmq::atomic_counter_t" = type { %"struct.std::atomic.22", [4 x i8] }
%"struct.std::atomic.22" = type { %"struct.std::__atomic_base.23" }
%"struct.std::__atomic_base.23" = type { i32 }
%"class.std::set.24" = type { %"class.std::_Rb_tree.25" }
%"class.std::_Rb_tree.25" = type { %"struct.std::_Rb_tree<zmq::own_t *, zmq::own_t *, std::_Identity<zmq::own_t *>, std::less<zmq::own_t *>>::_Rb_tree_impl" }
%"struct.std::_Rb_tree<zmq::own_t *, zmq::own_t *, std::_Identity<zmq::own_t *>, std::less<zmq::own_t *>>::_Rb_tree_impl" = type { [8 x i8], %"struct.std::_Rb_tree_header" }
%"class.zmq::io_object_t" = type { %"struct.zmq::i_poll_events", ptr }
%"struct.zmq::i_poll_events" = type { ptr }
%"struct.zmq::i_pipe_events" = type { ptr }
%"class.std::set.30" = type { %"class.std::_Rb_tree.31" }
%"class.std::_Rb_tree.31" = type { %"struct.std::_Rb_tree<zmq::pipe_t *, zmq::pipe_t *, std::_Identity<zmq::pipe_t *>, std::less<zmq::pipe_t *>>::_Rb_tree_impl" }
%"struct.std::_Rb_tree<zmq::pipe_t *, zmq::pipe_t *, std::_Identity<zmq::pipe_t *>, std::less<zmq::pipe_t *>>::_Rb_tree_impl" = type { [8 x i8], %"struct.std::_Rb_tree_header" }
%"class.zmq::msg_t" = type { %union.anon.36 }
%union.anon.36 = type { %struct.anon }
%struct.anon = type { ptr, [34 x i8], i8, i8, i32, %"union.zmq::msg_t::group_t" }
%"union.zmq::msg_t::group_t" = type { %struct.anon.38 }
%struct.anon.38 = type { i8, ptr }

@stderr = external global ptr, align 8
@.str.1 = private unnamed_addr constant [112 x i8] c"generated/home/dtcxzyw/WorkSpace/Projects/compilers/llvm-opt-benchmark/bench/libzmq/libzmq/src/session_base.cpp\00", align 1
@.str.3 = private unnamed_addr constant [30 x i8] c"Assertion failed: %s (%s:%d)\0A\00", align 1
@.str.8 = private unnamed_addr constant [12 x i8] c"%s (%s:%d)\0A\00", align 1
@.str.9 = private unnamed_addr constant [14 x i8] c"_pipe != NULL\00", align 1

; Function Attrs: mustprogress uwtable
define void @_ZN3zmq14session_base_t11clean_pipesEv(ptr noundef nonnull align 8 dereferenceable(1624) %0) #0 align 2 {
  %2 = alloca ptr, align 8
  %3 = alloca %"class.zmq::msg_t", align 8
  %4 = alloca i32, align 4
  %5 = alloca ptr, align 8
  %6 = alloca ptr, align 8
  %7 = alloca ptr, align 8
  store ptr %0, ptr %2, align 8, !tbaa !16
  %8 = load ptr, ptr %2, align 8
  br label %9

9:                                                ; preds = %1
  %10 = getelementptr inbounds nuw %"class.zmq::session_base_t", ptr %8, i32 0, i32 4
  %11 = load ptr, ptr %10, align 8, !tbaa !94
  %12 = icmp ne ptr %11, null
  %13 = xor i1 %12, true
  %14 = zext i1 %13 to i64
  %15 = call i64 @llvm.expect.i64(i64 %14, i64 0)
  %16 = icmp ne i64 %15, 0
  br i1 %16, label %17, label %22

17:                                               ; preds = %9
  %18 = load ptr, ptr @stderr, align 8, !tbaa !61
  %19 = call i32 (ptr, ptr, ...) @fprintf(ptr noundef %18, ptr noundef @.str.3, ptr noundef @.str.9, ptr noundef @.str.1, i32 noundef 220) #21
  %20 = load ptr, ptr @stderr, align 8, !tbaa !61
  %21 = call i32 @fflush(ptr noundef %20)
  call void @_ZN3zmq9zmq_abortEPKc(ptr noundef @.str.9)
  br label %22

22:                                               ; preds = %17, %9
  br label %23

23:                                               ; preds = %22
  %24 = getelementptr inbounds nuw %"class.zmq::session_base_t", ptr %8, i32 0, i32 4
  %25 = load ptr, ptr %24, align 8, !tbaa !94
  call void @_ZNK3zmq6pipe_t8rollbackEv(ptr noundef nonnull align 8 dereferenceable(328) %25)
  %26 = getelementptr inbounds nuw %"class.zmq::session_base_t", ptr %8, i32 0, i32 4
  %27 = load ptr, ptr %26, align 8, !tbaa !94
  call void @_ZN3zmq6pipe_t5flushEv(ptr noundef nonnull align 8 dereferenceable(328) %27)
  br label %28

28:                                               ; preds = %98, %23
  %29 = getelementptr inbounds nuw %"class.zmq::session_base_t", ptr %8, i32 0, i32 7
  %30 = load i8, ptr %29, align 8, !tbaa !96, !range !57, !noundef !58
  %31 = trunc i8 %30 to i1
  br i1 %31, label %32, label %99

32:                                               ; preds = %28
  call void @llvm.lifetime.start.p0(i64 64, ptr %3) #21
  call void @llvm.lifetime.start.p0(i64 4, ptr %4) #21
  %33 = call noundef i32 @_ZN3zmq5msg_t4initEv(ptr noundef nonnull align 8 dereferenceable(64) %3)
  store i32 %33, ptr %4, align 4, !tbaa !60
  br label %34

34:                                               ; preds = %32
  %35 = load i32, ptr %4, align 4, !tbaa !60
  %36 = icmp eq i32 %35, 0
  %37 = xor i1 %36, true
  %38 = zext i1 %37 to i64
  %39 = call i64 @llvm.expect.i64(i64 %38, i64 0)
  %40 = icmp ne i64 %39, 0
  br i1 %40, label %41, label %51

41:                                               ; preds = %34
  call void @llvm.lifetime.start.p0(i64 8, ptr %5) #21
  %42 = call ptr @__errno_location() #24
  %43 = load i32, ptr %42, align 4, !tbaa !60
  %44 = call ptr @strerror(i32 noundef %43) #21
  store ptr %44, ptr %5, align 8, !tbaa !112
  %45 = load ptr, ptr @stderr, align 8, !tbaa !61
  %46 = load ptr, ptr %5, align 8, !tbaa !112
  %47 = call i32 (ptr, ptr, ...) @fprintf(ptr noundef %45, ptr noundef @.str.8, ptr noundef %46, ptr noundef @.str.1, i32 noundef 231) #21
  %48 = load ptr, ptr @stderr, align 8, !tbaa !61
  %49 = call i32 @fflush(ptr noundef %48)
  %50 = load ptr, ptr %5, align 8, !tbaa !112
  call void @_ZN3zmq9zmq_abortEPKc(ptr noundef %50)
  call void @llvm.lifetime.end.p0(i64 8, ptr %5) #21
  br label %51

51:                                               ; preds = %41, %34
  br label %52

52:                                               ; preds = %51
  br label %53

53:                                               ; preds = %52
  %54 = load ptr, ptr %8, align 8, !tbaa !67
  %55 = getelementptr inbounds ptr, ptr %54, i64 30
  %56 = load ptr, ptr %55, align 8
  %57 = call noundef i32 %56(ptr noundef nonnull align 8 dereferenceable(1624) %8, ptr noundef %3)
  store i32 %57, ptr %4, align 4, !tbaa !60
  br label %58

58:                                               ; preds = %53
  %59 = load i32, ptr %4, align 4, !tbaa !60
  %60 = icmp eq i32 %59, 0
  %61 = xor i1 %60, true
  %62 = zext i1 %61 to i64
  %63 = call i64 @llvm.expect.i64(i64 %62, i64 0)
  %64 = icmp ne i64 %63, 0
  br i1 %64, label %65, label %75

65:                                               ; preds = %58
  call void @llvm.lifetime.start.p0(i64 8, ptr %6) #21
  %66 = call ptr @__errno_location() #24
  %67 = load i32, ptr %66, align 4, !tbaa !60
  %68 = call ptr @strerror(i32 noundef %67) #21
  store ptr %68, ptr %6, align 8, !tbaa !112
  %69 = load ptr, ptr @stderr, align 8, !tbaa !61
  %70 = load ptr, ptr %6, align 8, !tbaa !112
  %71 = call i32 (ptr, ptr, ...) @fprintf(ptr noundef %69, ptr noundef @.str.8, ptr noundef %70, ptr noundef @.str.1, i32 noundef 233) #21
  %72 = load ptr, ptr @stderr, align 8, !tbaa !61
  %73 = call i32 @fflush(ptr noundef %72)
  %74 = load ptr, ptr %6, align 8, !tbaa !112
  call void @_ZN3zmq9zmq_abortEPKc(ptr noundef %74)
  call void @llvm.lifetime.end.p0(i64 8, ptr %6) #21
  br label %75

75:                                               ; preds = %65, %58
  br label %76

76:                                               ; preds = %75
  br label %77

77:                                               ; preds = %76
  %78 = call noundef i32 @_ZN3zmq5msg_t5closeEv(ptr noundef nonnull align 8 dereferenceable(64) %3)
  store i32 %78, ptr %4, align 4, !tbaa !60
  br label %79

79:                                               ; preds = %77
  %80 = load i32, ptr %4, align 4, !tbaa !60
  %81 = icmp eq i32 %80, 0
  %82 = xor i1 %81, true
  %83 = zext i1 %82 to i64
  %84 = call i64 @llvm.expect.i64(i64 %83, i64 0)
  %85 = icmp ne i64 %84, 0
  br i1 %85, label %86, label %96

86:                                               ; preds = %79
  call void @llvm.lifetime.start.p0(i64 8, ptr %7) #21
  %87 = call ptr @__errno_location() #24
  %88 = load i32, ptr %87, align 4, !tbaa !60
  %89 = call ptr @strerror(i32 noundef %88) #21
  store ptr %89, ptr %7, align 8, !tbaa !112
  %90 = load ptr, ptr @stderr, align 8, !tbaa !61
  %91 = load ptr, ptr %7, align 8, !tbaa !112
  %92 = call i32 (ptr, ptr, ...) @fprintf(ptr noundef %90, ptr noundef @.str.8, ptr noundef %91, ptr noundef @.str.1, i32 noundef 235) #21
  %93 = load ptr, ptr @stderr, align 8, !tbaa !61
  %94 = call i32 @fflush(ptr noundef %93)
  %95 = load ptr, ptr %7, align 8, !tbaa !112
  call void @_ZN3zmq9zmq_abortEPKc(ptr noundef %95)
  call void @llvm.lifetime.end.p0(i64 8, ptr %7) #21
  br label %96

96:                                               ; preds = %86, %79
  br label %97

97:                                               ; preds = %96
  br label %98

98:                                               ; preds = %97
  call void @llvm.lifetime.end.p0(i64 4, ptr %4) #21
  call void @llvm.lifetime.end.p0(i64 64, ptr %3) #21
  br label %28, !llvm.loop !114

99:                                               ; preds = %28
  ret void
}