; Function Attrs: mustprogress uwtable
define void @_ZN3zmq14session_base_t11clean_pipesEv(ptr noundef nonnull align 8 dereferenceable(1624) %0) local_unnamed_addr #0 align 2 {
  %2 = alloca %"class.zmq::msg_t", align 8
  %3 = getelementptr inbounds nuw i8, ptr %0, i64 1480
  %4 = load ptr, ptr %3, align 8, !tbaa !101
  %.not = icmp eq ptr %4, null
  br i1 %.not, label %5, label %10, !prof !104

5:                                                ; preds = %1
  %6 = load ptr, ptr @stderr, align 8, !tbaa !52
  %7 = tail call i32 (ptr, ptr, ...) @fprintf(ptr noundef %6, ptr noundef nonnull @.str.3, ptr noundef nonnull @.str.9, ptr noundef nonnull @.str.1, i32 noundef 220) #27
  %8 = load ptr, ptr @stderr, align 8, !tbaa !52
  %9 = tail call i32 @fflush(ptr noundef %8)
  tail call void @_ZN3zmq9zmq_abortEPKc(ptr noundef nonnull @.str.9)
  %.pre = load ptr, ptr %3, align 8, !tbaa !101
  br label %10

10:                                               ; preds = %1, %5
  %11 = phi ptr [ %4, %1 ], [ %.pre, %5 ]
  tail call void @_ZNK3zmq6pipe_t8rollbackEv(ptr noundef nonnull align 8 dereferenceable(328) %11)
  %12 = load ptr, ptr %3, align 8, !tbaa !101
  tail call void @_ZN3zmq6pipe_t5flushEv(ptr noundef nonnull align 8 dereferenceable(328) %12)
  %13 = getelementptr inbounds nuw i8, ptr %0, i64 1544
  %14 = load i8, ptr %13, align 8, !tbaa !89, !range !47, !noundef !48
  %15 = trunc nuw i8 %14 to i1
  br i1 %15, label %.lr.ph, label %._crit_edge

.lr.ph:                                           ; preds = %10, %48
  call void @llvm.lifetime.start.p0(i64 64, ptr nonnull %2) #29
  %16 = call noundef i32 @_ZN3zmq5msg_t4initEv(ptr noundef nonnull align 8 dereferenceable(64) %2)
  %.not9 = icmp eq i32 %16, 0
  br i1 %.not9, label %25, label %17, !prof !102

17:                                               ; preds = %.lr.ph
  %18 = tail call ptr @__errno_location() #26
  %19 = load i32, ptr %18, align 4, !tbaa !51
  %20 = call ptr @strerror(i32 noundef %19) #29
  %21 = load ptr, ptr @stderr, align 8, !tbaa !52
  %22 = call i32 (ptr, ptr, ...) @fprintf(ptr noundef %21, ptr noundef nonnull @.str.8, ptr noundef %20, ptr noundef nonnull @.str.1, i32 noundef 231) #27
  %23 = load ptr, ptr @stderr, align 8, !tbaa !52
  %24 = call i32 @fflush(ptr noundef %23)
  call void @_ZN3zmq9zmq_abortEPKc(ptr noundef %20)
  br label %25

25:                                               ; preds = %17, %.lr.ph
  %26 = load ptr, ptr %0, align 8, !tbaa !54
  %27 = getelementptr inbounds nuw i8, ptr %26, i64 240
  %28 = load ptr, ptr %27, align 8
  %29 = call noundef i32 %28(ptr noundef nonnull align 8 dereferenceable(1624) %0, ptr noundef nonnull %2)
  %.not10 = icmp eq i32 %29, 0
  br i1 %.not10, label %38, label %30, !prof !102

30:                                               ; preds = %25
  %31 = tail call ptr @__errno_location() #26
  %32 = load i32, ptr %31, align 4, !tbaa !51
  %33 = call ptr @strerror(i32 noundef %32) #29
  %34 = load ptr, ptr @stderr, align 8, !tbaa !52
  %35 = call i32 (ptr, ptr, ...) @fprintf(ptr noundef %34, ptr noundef nonnull @.str.8, ptr noundef %33, ptr noundef nonnull @.str.1, i32 noundef 233) #27
  %36 = load ptr, ptr @stderr, align 8, !tbaa !52
  %37 = call i32 @fflush(ptr noundef %36)
  call void @_ZN3zmq9zmq_abortEPKc(ptr noundef %33)
  br label %38

38:                                               ; preds = %30, %25
  %39 = call noundef i32 @_ZN3zmq5msg_t5closeEv(ptr noundef nonnull align 8 dereferenceable(64) %2)
  %.not11 = icmp eq i32 %39, 0
  br i1 %.not11, label %48, label %40, !prof !102

40:                                               ; preds = %38
  %41 = tail call ptr @__errno_location() #26
  %42 = load i32, ptr %41, align 4, !tbaa !51
  %43 = call ptr @strerror(i32 noundef %42) #29
  %44 = load ptr, ptr @stderr, align 8, !tbaa !52
  %45 = call i32 (ptr, ptr, ...) @fprintf(ptr noundef %44, ptr noundef nonnull @.str.8, ptr noundef %43, ptr noundef nonnull @.str.1, i32 noundef 235) #27
  %46 = load ptr, ptr @stderr, align 8, !tbaa !52
  %47 = call i32 @fflush(ptr noundef %46)
  call void @_ZN3zmq9zmq_abortEPKc(ptr noundef %43)
  br label %48

48:                                               ; preds = %40, %38
  call void @llvm.lifetime.end.p0(i64 64, ptr nonnull %2) #29
  %49 = load i8, ptr %13, align 8, !tbaa !89, !range !47, !noundef !48
  %50 = trunc nuw i8 %49 to i1
  br i1 %50, label %.lr.ph, label %._crit_edge, !llvm.loop !105

._crit_edge:                                      ; preds = %48, %10
  ret void
}